(dp0
S'netOutputFilename'
p1
S'actionrec.learnt.pmml'
p2
sS'learnDomains'
p3
I1
sS'bif'
p4
S'actionrec.pmml'
p5
sS'ignoreData'
p6
I0
sS'db'
p7
S'train-control.blogdb'
p8
sS'outputFilename'
p9
S'actionrec.learnt.abl'
p10
sS'blog'
p11
S'actionrec.abl'
p12
sS'geometry'
p13
S'1278x746+1+29'
p14
sS'params'
p15
S''
p16
sS'blog_rename'
p17
I0
sS'mergeDomains'
p18
I0
sS'pattern'
p19
g16
s.