(dp0
S'blog'
p1
S'actionrec.abl'
p2
sS'learnDomains'
p3
I1
sS'bif'
p4
S'actionrec.pmml'
p5
sS'ignoreData'
p6
I0
sS'db'
p7
S'train-control.blogdb'
p8
sS'outputFilename'
p9
S'actionrec.learnt.control.abl'
p10
sS'netOutputFilename'
p11
S'actionrec.learnt.control.pmml'
p12
sS'geometry'
p13
S'1278x747+3+81'
p14
sS'params'
p15
S''
p16
sS'blog_rename'
p17
I0
sS'mergeDomains'
p18
I1
sS'pattern'
p19
g16
s.